target datalayout = "e-m:e-p270:32:32-p271:32:32-p272:64:64-i64:64-i128:128-f80:128-n8:16:32:64-S128"
target triple = "x86_64-pc-linux-gnu"

%"class.smt::theory_sls" = type { %"class.smt::theory.base", %"class.sls::smt_context", %"struct.smt::theory_sls::stats", %class.ref, ptr, i32, i8, i8, i32, i32, i32, i32, i32, i32, i32, i32, i8, i32, i32, i32, i32, i32, i32, i8, %class.statistics, %class.vector.5 }
%"class.smt::theory.base" = type <{ ptr, i32, [4 x i8], ptr, ptr, %class.ptr_vector, %class.svector, i32, i8 }>
%class.ptr_vector = type { %class.vector }
%class.vector = type { ptr }
%class.svector = type { %class.vector.0 }
%class.vector.0 = type { ptr }
%"class.sls::smt_context" = type { ptr }
%"struct.smt::theory_sls::stats" = type { i32, i32 }
%class.ref = type { ptr }
%class.statistics = type { %class.svector.1, %class.svector.3 }
%class.svector.1 = type { %class.vector.2 }
%class.vector.2 = type { ptr }
%class.svector.3 = type { %class.vector.4 }
%class.vector.4 = type { ptr }
%class.vector.5 = type { ptr }
%class.params_ref = type { ptr }
%class.symbol = type { ptr }
%class.u_map = type { %class.map }
%class.map = type { %class.table2map }
%class.table2map = type { %class.core_hashtable.11 }
%class.core_hashtable.11 = type <{ ptr, i32, i32, i32, [4 x i8] }>
%class.obj_map.26 = type { %class.core_hashtable.27 }
%class.core_hashtable.27 = type <{ ptr, i32, i32, i32, [4 x i8] }>
%class.ptr_vector.59 = type { %class.vector.60 }
%class.vector.60 = type { ptr }
%class.svector.89 = type { %class.vector.90 }
%class.vector.90 = type { ptr }
%class.random_gen = type { i32 }
%class.ptr_vector.7 = type { %class.vector.8 }
%class.vector.8 = type { ptr }
%class.svector.189 = type { %class.vector.190 }
%class.vector.190 = type { ptr }
%class.svector.195 = type { %class.vector.196 }
%class.vector.196 = type { ptr }
%class.ref_vector = type { %class.ref_vector_core }
%class.ref_vector_core = type { %class.ref_manager_wrapper, %class.ptr_vector.7 }
%class.ref_manager_wrapper = type { ptr }
%class.svector.237 = type { %class.vector.238 }
%class.vector.238 = type { ptr }
%class.uint_set = type { %class.svector }
%class.vector.244 = type { ptr }
%class.ptr_vector.157 = type { %class.vector.158 }
%class.vector.158 = type { ptr }
%class.svector.13 = type { %class.vector.14 }
%class.vector.14 = type { ptr }
%class.obj_map = type { %class.core_hashtable }
%class.core_hashtable = type <{ ptr, i32, i32, i32, [4 x i8] }>
%"class.sls::smt_plugin" = type { %"class.sat::local_search_plugin", %"class.sls::sat_solver_context", ptr, ptr, %class.ast_manager, %class.ast_manager, %class.ast_translation, %class.ast_translation, %class.ast_translation, %class.ast_translation, %class.ast_translation, %class.ref_vector, %class.ref_vector, %class.ref_vector, ptr, %"class.sls::context", %"struct.std::atomic.297", %"struct.std::atomic.298", %"struct.std::atomic.298", %"class.std::thread", %"class.std::mutex", i32, i32, %class.svector.195, %class.ref, i8, i32, %class.obj_map, %class.obj_map, %class.vector.244, %"struct.std::atomic.298", %class.uint_set, %class.uint_set, %class.svector.13, %"struct.std::atomic.298", %"struct.std::atomic.298", %"struct.std::atomic.298", %class.svector.13, %class.svector.189, %class.svector, %class.svector }
%"class.sat::local_search_plugin" = type { ptr }
%"class.sls::sat_solver_context" = type { ptr }
%class.ast_manager = type { %class.reslimit, %class.small_object_allocator, %class.family_manager, %class.parray_manager, %class.dependency_manager, %class.parray_manager.274, %class.ptr_vector.277, i32, i8, %class.ast_table, %class.obj_map.26, %class.id_gen, %class.id_gen, ptr, ptr, ptr, ptr, ptr, i32, i8, [3 x i8], %class.u_map, ptr, i8, i8, ptr, %class.symbol, %class.obj_map.281, ptr }
%class.reslimit = type { %"struct.std::atomic", i8, i64, i64, %class.svector.237, %class.ptr_vector.265 }
%"struct.std::atomic" = type { %"struct.std::__atomic_base" }
%"struct.std::__atomic_base" = type { i32 }
%class.ptr_vector.265 = type { %class.vector.266 }
%class.vector.266 = type { ptr }
%class.small_object_allocator = type { [32 x ptr], [32 x ptr], i64 }
%class.family_manager = type { i32, %class.symbol_table, %class.svector.270 }
%class.symbol_table = type { %class.core_hashtable.267, %class.vector.269, %class.svector.89 }
%class.core_hashtable.267 = type <{ ptr, i32, i32, i32, [4 x i8] }>
%class.vector.269 = type { ptr }
%class.svector.270 = type { %class.vector.271 }
%class.vector.271 = type { ptr }
%class.parray_manager = type { ptr, ptr, %class.ptr_vector.272, %class.ptr_vector.272 }
%class.ptr_vector.272 = type { %class.vector.273 }
%class.vector.273 = type { ptr }
%class.dependency_manager = type { ptr, ptr, %class.ptr_vector.59 }
%class.parray_manager.274 = type { ptr, ptr, %class.ptr_vector.275, %class.ptr_vector.275 }
%class.ptr_vector.275 = type { %class.vector.276 }
%class.vector.276 = type { ptr }
%class.ptr_vector.277 = type { %class.vector.278 }
%class.vector.278 = type { ptr }
%class.ast_table = type { %class.chashtable.279 }
%class.chashtable.279 = type { ptr, i32, i32, i32, i32, i32, i32, i32, ptr, ptr, ptr }
%class.id_gen = type { i32, %class.svector }
%class.obj_map.281 = type { %class.core_hashtable.282 }
%class.core_hashtable.282 = type <{ ptr, i32, i32, i32, [4 x i8] }>
%class.ast_translation = type <{ ptr, ptr, %class.svector.286, %class.ptr_vector.157, %class.ptr_vector.157, %class.obj_map.288, i32, i32, i32, i32, i32, [4 x i8] }>
%class.svector.286 = type { %class.vector.287 }
%class.vector.287 = type { ptr }
%class.obj_map.288 = type { %class.core_hashtable.289 }
%class.core_hashtable.289 = type <{ ptr, i32, i32, i32, [4 x i8] }>
%"class.sls::context" = type <{ ptr, ptr, %class.scoped_ptr_vector, %class.indexed_uint_set, %class.indexed_uint_set, %class.ref_vector, %class.svector, %class.params_ref, %class.vector.295, %class.svector.195, %class.svector.195, %class.indexed_uint_set, %class.random_gen, i8, i8, i8, i8, %class.ref_vector, %class.ref_vector, %class.ptr_vector.7, %"struct.sls::context::greater_depth", %"struct.sls::context::less_depth", %class.heap, %class.heap.296, %class.uint_set, %class.ref_vector, %"struct.sls::context::stats", [4 x i8], %class.ref_vector, i8, [7 x i8] }>
%class.scoped_ptr_vector = type { %class.ptr_vector.293 }
%class.ptr_vector.293 = type { %class.vector.294 }
%class.vector.294 = type { ptr }
%class.vector.295 = type { ptr }
%class.indexed_uint_set = type { i32, %class.svector, %class.svector }
%"struct.sls::context::greater_depth" = type { ptr }
%"struct.sls::context::less_depth" = type { ptr }
%class.heap = type { %"struct.sls::context::greater_depth", %class.svector.89, %class.svector.89 }
%class.heap.296 = type { %"struct.sls::context::less_depth", %class.svector.89, %class.svector.89 }
%"struct.sls::context::stats" = type { i32, i32, i32 }
%"struct.std::atomic.297" = type { i32 }
%"class.std::thread" = type { %"class.std::thread::id" }
%"class.std::thread::id" = type { i64 }
%"class.std::mutex" = type { %"class.std::__mutex_base" }
%"class.std::__mutex_base" = type { %union.pthread_mutex_t }
%union.pthread_mutex_t = type { %struct.__pthread_mutex_s }
%struct.__pthread_mutex_s = type { i32, i32, i32, i32, i32, i16, i16, %struct.__pthread_internal_list }
%struct.__pthread_internal_list = type { ptr, ptr }
%"struct.std::atomic.298" = type { %"struct.std::__atomic_base.299" }
%"struct.std::__atomic_base.299" = type { i8 }

; Function Attrs: mustprogress nounwind uwtable
define linkonce_odr hidden noundef i32 @_ZNKSt6atomicI5lboolE4loadESt12memory_order(ptr noundef nonnull align 4 dereferenceable(4) %0, i32 noundef %1) #4 comdat align 2 {
  %3 = alloca ptr, align 8
  %4 = alloca i32, align 4
  %5 = alloca [4 x i8], align 4
  %6 = alloca ptr, align 8
  store ptr %0, ptr %3, align 8, !tbaa !740
  store i32 %1, ptr %4, align 4, !tbaa !715
  %7 = load ptr, ptr %3, align 8
  call void @llvm.lifetime.start.p0(i64 4, ptr %5) #3
  call void @llvm.lifetime.start.p0(i64 8, ptr %6) #3
  %8 = getelementptr inbounds [4 x i8], ptr %5, i64 0, i64 0
  store ptr %8, ptr %6, align 8, !tbaa !648
  %9 = getelementptr inbounds nuw %"struct.std::atomic.297", ptr %7, i32 0, i32 0
  %10 = load i32, ptr %4, align 4, !tbaa !715
  %11 = load ptr, ptr %6, align 8, !tbaa !648
  switch i32 %10, label %12 [
    i32 1, label %14
    i32 2, label %14
    i32 5, label %16
  ]

12:                                               ; preds = %2
  %13 = load atomic i32, ptr %9 monotonic, align 4
  store i32 %13, ptr %11, align 4
  br label %18

14:                                               ; preds = %2, %2
  %15 = load atomic i32, ptr %9 acquire, align 4
  store i32 %15, ptr %11, align 4
  br label %18

16:                                               ; preds = %2
  %17 = load atomic i32, ptr %9 seq_cst, align 4
  store i32 %17, ptr %11, align 4
  br label %18

18:                                               ; preds = %16, %14, %12
  %19 = load ptr, ptr %6, align 8, !tbaa !648
  %20 = load i32, ptr %19, align 4, !tbaa !742
  call void @llvm.lifetime.end.p0(i64 8, ptr %6) #3
  call void @llvm.lifetime.end.p0(i64 4, ptr %5) #3
  ret i32 %20
}

; Function Attrs: mustprogress nounwind uwtable
define linkonce_odr hidden noundef i32 @_ZNKSt6atomicI5lboolEcvS0_Ev(ptr noundef nonnull align 4 dereferenceable(4) %0) #4 comdat align 2 {
  %2 = alloca ptr, align 8
  store ptr %0, ptr %2, align 8, !tbaa !740
  %3 = load ptr, ptr %2, align 8
  %4 = call noundef i32 @_ZNKSt6atomicI5lboolE4loadESt12memory_order(ptr noundef nonnull align 4 dereferenceable(4) %3, i32 noundef 5) #3
  ret i32 %4
}

; Function Attrs: mustprogress nounwind uwtable
define linkonce_odr hidden noundef i32 @_ZN3sls10smt_plugin6resultEv(ptr noundef nonnull align 8 dereferenceable(3024) %0) #4 comdat align 2 {
  %2 = alloca ptr, align 8
  store ptr %0, ptr %2, align 8, !tbaa !587
  %3 = load ptr, ptr %2, align 8
  %4 = getelementptr inbounds nuw %"class.sls::smt_plugin", ptr %3, i32 0, i32 16
  %5 = call noundef i32 @_ZNKSt6atomicI5lboolEcvS0_Ev(ptr noundef nonnull align 4 dereferenceable(4) %4) #3
  ret i32 %5
}

; Function Attrs: mustprogress uwtable
define hidden void @_ZN3smt10theory_sls11bounded_runEj(ptr noundef nonnull align 8 dereferenceable(184) %0, i32 noundef %1) #6 align 2 {
  %3 = alloca ptr, align 8
  %4 = alloca i32, align 4
  store ptr %0, ptr %3, align 8, !tbaa !28
  store i32 %1, ptr %4, align 4, !tbaa !8
  %5 = load ptr, ptr %3, align 8
  %6 = getelementptr inbounds nuw %"class.smt::theory_sls", ptr %5, i32 0, i32 4
  %7 = load ptr, ptr %6, align 8, !tbaa !34
  %8 = load i32, ptr %4, align 4, !tbaa !8
  call void @_ZN3sls10smt_plugin11bounded_runEj(ptr noundef nonnull align 8 dereferenceable(3024) %7, i32 noundef %8)
  %9 = getelementptr inbounds nuw %"class.smt::theory_sls", ptr %5, i32 0, i32 4
  %10 = load ptr, ptr %9, align 8, !tbaa !34
  %11 = call noundef i32 @_ZN3sls10smt_plugin6resultEv(ptr noundef nonnull align 8 dereferenceable(3024) %10)
  %12 = icmp eq i32 %11, 1
  br i1 %12, label %13, label %20

13:                                               ; preds = %2
  %14 = getelementptr inbounds nuw %"class.smt::theory_sls", ptr %5, i32 0, i32 4
  %15 = load ptr, ptr %14, align 8, !tbaa !34
  %16 = getelementptr inbounds nuw %"class.smt::theory_sls", ptr %5, i32 0, i32 3
  %17 = getelementptr inbounds nuw %"class.smt::theory_sls", ptr %5, i32 0, i32 24
  call void @_ZN3sls10smt_plugin8finalizeER3refI5modelER10statistics(ptr noundef nonnull align 8 dereferenceable(3024) %15, ptr noundef nonnull align 8 dereferenceable(8) %16, ptr noundef nonnull align 8 dereferenceable(16) %17)
  %18 = getelementptr inbounds nuw %"class.smt::theory_sls", ptr %5, i32 0, i32 4
  store ptr null, ptr %18, align 8, !tbaa !34
  %19 = getelementptr inbounds nuw %"class.smt::theory_sls", ptr %5, i32 0, i32 23
  store i8 0, ptr %19, align 4, !tbaa !77
  br label %20

20:                                               ; preds = %13, %2
  ret void
}