; Function Attrs: mustprogress uwtable
define hidden void @_ZN3smt10theory_sls11bounded_runEj(ptr noundef nonnull align 8 dereferenceable(184) %0, i32 noundef %1) local_unnamed_addr #4 align 2 {
  %3 = getelementptr inbounds nuw i8, ptr %0, i64 80
  %4 = load ptr, ptr %3, align 8, !tbaa !522
  tail call void @_ZN3sls10smt_plugin11bounded_runEj(ptr noundef nonnull align 8 dereferenceable(3024) %4, i32 noundef %1)
  %5 = load ptr, ptr %3, align 8, !tbaa !522
  %6 = getelementptr inbounds nuw i8, ptr %5, i64 2808
  %7 = load atomic i32, ptr %6 seq_cst, align 4
  %8 = icmp eq i32 %7, 1
  br i1 %8, label %9, label %14

9:                                                ; preds = %2
  %10 = load ptr, ptr %3, align 8, !tbaa !522
  %11 = getelementptr inbounds nuw i8, ptr %0, i64 72
  %12 = getelementptr inbounds nuw i8, ptr %0, i64 160
  tail call void @_ZN3sls10smt_plugin8finalizeER3refI5modelER10statistics(ptr noundef nonnull align 8 dereferenceable(3024) %10, ptr noundef nonnull align 8 dereferenceable(8) %11, ptr noundef nonnull align 8 dereferenceable(16) %12)
  store ptr null, ptr %3, align 8, !tbaa !522
  %13 = getelementptr inbounds nuw i8, ptr %0, i64 156
  store i8 0, ptr %13, align 4, !tbaa !532
  br label %14

14:                                               ; preds = %9, %2
  ret void
}